; Function Attrs: nounwind uwtable
define ptr @lv_theme_get_from_obj(ptr noundef %0) local_unnamed_addr #0 {
  %.not = icmp eq ptr %0, null
  br i1 %.not, label %4, label %2

2:                                                ; preds = %1
  %3 = tail call ptr @lv_obj_get_display(ptr noundef nonnull %0) #3
  br label %6

4:                                                ; preds = %1
  %5 = tail call ptr @lv_display_get_default() #3
  br label %6

6:                                                ; preds = %4, %2
  %7 = phi ptr [ %3, %2 ], [ %5, %4 ]
  %8 = tail call ptr @lv_display_get_theme(ptr noundef %7) #3
  ret ptr %8
}